target datalayout = "e-m:e-p270:32:32-p271:32:32-p272:64:64-i64:64-i128:128-f80:128-n8:16:32:64-S128"
target triple = "x86_64-pc-linux-gnu"

%struct.evp_pkey_st = type { i32, i32, ptr, ptr, ptr, %union.legacy_pkey_st, %union.legacy_pkey_st, %struct.CRYPTO_REF_COUNT, ptr, ptr, i32, i8, %struct.crypto_ex_data_st, ptr, ptr, i64, ptr, i64, %struct.anon }
%union.legacy_pkey_st = type { ptr }
%struct.CRYPTO_REF_COUNT = type { i32 }
%struct.crypto_ex_data_st = type { ptr, ptr }
%struct.anon = type { i32, i32, i32 }
%struct.evp_pkey_asn1_method_st = type { i32, i32, i64, ptr, ptr, ptr, ptr, ptr, ptr, ptr, ptr, ptr, ptr, ptr, ptr, ptr, ptr, ptr, ptr, ptr, ptr, ptr, ptr, ptr, ptr, ptr, ptr, ptr, ptr, ptr, ptr, ptr, ptr, ptr, ptr, ptr, ptr, ptr, ptr, ptr, ptr }

@.str = private unnamed_addr constant [33 x i8] c"../openssl/crypto/evp/evp_pkey.c\00", align 1
@__func__.evp_pkcs82pkey_legacy = private unnamed_addr constant [22 x i8] c"evp_pkcs82pkey_legacy\00", align 1
@.str.1 = private unnamed_addr constant [8 x i8] c"TYPE=%s\00", align 1

; Function Attrs: nounwind uwtable
define ptr @evp_pkcs82pkey_legacy(ptr noundef %0, ptr noundef %1, ptr noundef %2) #0 {
  %4 = alloca ptr, align 8
  %5 = alloca ptr, align 8
  %6 = alloca ptr, align 8
  %7 = alloca ptr, align 8
  %8 = alloca ptr, align 8
  %9 = alloca ptr, align 8
  %10 = alloca [80 x i8], align 16
  %11 = alloca i32, align 4
  store ptr %0, ptr %5, align 8, !tbaa !3
  store ptr %1, ptr %6, align 8, !tbaa !8
  store ptr %2, ptr %7, align 8, !tbaa !10
  call void @llvm.lifetime.start.p0(i64 8, ptr %8) #3
  store ptr null, ptr %8, align 8, !tbaa !12
  call void @llvm.lifetime.start.p0(i64 8, ptr %9) #3
  call void @llvm.lifetime.start.p0(i64 80, ptr %10) #3
  %12 = load ptr, ptr %5, align 8, !tbaa !3
  %13 = call i32 @PKCS8_pkey_get0(ptr noundef %9, ptr noundef null, ptr noundef null, ptr noundef null, ptr noundef %12)
  %14 = icmp ne i32 %13, 0
  br i1 %14, label %16, label %15

15:                                               ; preds = %3
  store ptr null, ptr %4, align 8
  store i32 1, ptr %11, align 4
  br label %77

16:                                               ; preds = %3
  %17 = call ptr @EVP_PKEY_new()
  store ptr %17, ptr %8, align 8, !tbaa !12
  %18 = icmp eq ptr %17, null
  br i1 %18, label %19, label %20

19:                                               ; preds = %16
  call void @ERR_new()
  call void @ERR_set_debug(ptr noundef @.str, i32 noundef 36, ptr noundef @__func__.evp_pkcs82pkey_legacy)
  call void (i32, i32, ptr, ...) @ERR_set_error(i32 noundef 6, i32 noundef 524294, ptr noundef null)
  store ptr null, ptr %4, align 8
  store i32 1, ptr %11, align 4
  br label %77

20:                                               ; preds = %16
  %21 = load ptr, ptr %8, align 8, !tbaa !12
  %22 = load ptr, ptr %9, align 8, !tbaa !14
  %23 = call i32 @OBJ_obj2nid(ptr noundef %22)
  %24 = call i32 @EVP_PKEY_set_type(ptr noundef %21, i32 noundef %23)
  %25 = icmp ne i32 %24, 0
  br i1 %25, label %31, label %26

26:                                               ; preds = %20
  %27 = getelementptr inbounds [80 x i8], ptr %10, i64 0, i64 0
  %28 = load ptr, ptr %9, align 8, !tbaa !14
  %29 = call i32 @i2t_ASN1_OBJECT(ptr noundef %27, i32 noundef 80, ptr noundef %28)
  call void @ERR_new()
  call void @ERR_set_debug(ptr noundef @.str, i32 noundef 42, ptr noundef @__func__.evp_pkcs82pkey_legacy)
  %30 = getelementptr inbounds [80 x i8], ptr %10, i64 0, i64 0
  call void (i32, i32, ptr, ...) @ERR_set_error(i32 noundef 6, i32 noundef 118, ptr noundef @.str.1, ptr noundef %30)
  br label %75

31:                                               ; preds = %20
  %32 = load ptr, ptr %8, align 8, !tbaa !12
  %33 = getelementptr inbounds nuw %struct.evp_pkey_st, ptr %32, i32 0, i32 2
  %34 = load ptr, ptr %33, align 8, !tbaa !16
  %35 = getelementptr inbounds nuw %struct.evp_pkey_asn1_method_st, ptr %34, i32 0, i32 40
  %36 = load ptr, ptr %35, align 8, !tbaa !29
  %37 = icmp ne ptr %36, null
  br i1 %37, label %38, label %52

38:                                               ; preds = %31
  %39 = load ptr, ptr %8, align 8, !tbaa !12
  %40 = getelementptr inbounds nuw %struct.evp_pkey_st, ptr %39, i32 0, i32 2
  %41 = load ptr, ptr %40, align 8, !tbaa !16
  %42 = getelementptr inbounds nuw %struct.evp_pkey_asn1_method_st, ptr %41, i32 0, i32 40
  %43 = load ptr, ptr %42, align 8, !tbaa !29
  %44 = load ptr, ptr %8, align 8, !tbaa !12
  %45 = load ptr, ptr %5, align 8, !tbaa !3
  %46 = load ptr, ptr %6, align 8, !tbaa !8
  %47 = load ptr, ptr %7, align 8, !tbaa !10
  %48 = call i32 %43(ptr noundef %44, ptr noundef %45, ptr noundef %46, ptr noundef %47)
  %49 = icmp ne i32 %48, 0
  br i1 %49, label %51, label %50

50:                                               ; preds = %38
  br label %75

51:                                               ; preds = %38
  br label %73

52:                                               ; preds = %31
  %53 = load ptr, ptr %8, align 8, !tbaa !12
  %54 = getelementptr inbounds nuw %struct.evp_pkey_st, ptr %53, i32 0, i32 2
  %55 = load ptr, ptr %54, align 8, !tbaa !16
  %56 = getelementptr inbounds nuw %struct.evp_pkey_asn1_method_st, ptr %55, i32 0, i32 9
  %57 = load ptr, ptr %56, align 8, !tbaa !31
  %58 = icmp ne ptr %57, null
  br i1 %58, label %59, label %71

59:                                               ; preds = %52
  %60 = load ptr, ptr %8, align 8, !tbaa !12
  %61 = getelementptr inbounds nuw %struct.evp_pkey_st, ptr %60, i32 0, i32 2
  %62 = load ptr, ptr %61, align 8, !tbaa !16
  %63 = getelementptr inbounds nuw %struct.evp_pkey_asn1_method_st, ptr %62, i32 0, i32 9
  %64 = load ptr, ptr %63, align 8, !tbaa !31
  %65 = load ptr, ptr %8, align 8, !tbaa !12
  %66 = load ptr, ptr %5, align 8, !tbaa !3
  %67 = call i32 %64(ptr noundef %65, ptr noundef %66)
  %68 = icmp ne i32 %67, 0
  br i1 %68, label %70, label %69

69:                                               ; preds = %59
  call void @ERR_new()
  call void @ERR_set_debug(ptr noundef @.str, i32 noundef 52, ptr noundef @__func__.evp_pkcs82pkey_legacy)
  call void (i32, i32, ptr, ...) @ERR_set_error(i32 noundef 6, i32 noundef 145, ptr noundef null)
  br label %75

70:                                               ; preds = %59
  br label %72

71:                                               ; preds = %52
  call void @ERR_new()
  call void @ERR_set_debug(ptr noundef @.str, i32 noundef 56, ptr noundef @__func__.evp_pkcs82pkey_legacy)
  call void (i32, i32, ptr, ...) @ERR_set_error(i32 noundef 6, i32 noundef 144, ptr noundef null)
  br label %75

72:                                               ; preds = %70
  br label %73

73:                                               ; preds = %72, %51
  %74 = load ptr, ptr %8, align 8, !tbaa !12
  store ptr %74, ptr %4, align 8
  store i32 1, ptr %11, align 4
  br label %77

75:                                               ; preds = %71, %69, %50, %26
  %76 = load ptr, ptr %8, align 8, !tbaa !12
  call void @EVP_PKEY_free(ptr noundef %76)
  store ptr null, ptr %4, align 8
  store i32 1, ptr %11, align 4
  br label %77

77:                                               ; preds = %75, %73, %19, %15
  call void @llvm.lifetime.end.p0(i64 80, ptr %10) #3
  call void @llvm.lifetime.end.p0(i64 8, ptr %9) #3
  call void @llvm.lifetime.end.p0(i64 8, ptr %8) #3
  %78 = load ptr, ptr %4, align 8
  ret ptr %78
}