; Function Attrs: nounwind uwtable
define ptr @evp_pkcs82pkey_legacy(ptr noundef %0, ptr noundef %1, ptr noundef %2) local_unnamed_addr #0 {
  %4 = alloca ptr, align 8
  %5 = alloca [80 x i8], align 16
  call void @llvm.lifetime.start.p0(i64 8, ptr nonnull %4) #3
  call void @llvm.lifetime.start.p0(i64 80, ptr nonnull %5) #3
  %6 = call i32 @PKCS8_pkey_get0(ptr noundef nonnull %4, ptr noundef null, ptr noundef null, ptr noundef null, ptr noundef %0) #3
  %.not = icmp eq i32 %6, 0
  br i1 %.not, label %33, label %7

7:                                                ; preds = %3
  %8 = call ptr @EVP_PKEY_new() #3
  %9 = icmp eq ptr %8, null
  br i1 %9, label %10, label %11

10:                                               ; preds = %7
  call void @ERR_new() #3
  call void @ERR_set_debug(ptr noundef nonnull @.str, i32 noundef 36, ptr noundef nonnull @__func__.evp_pkcs82pkey_legacy) #3
  call void (i32, i32, ptr, ...) @ERR_set_error(i32 noundef 6, i32 noundef 524294, ptr noundef null) #3
  br label %33

11:                                               ; preds = %7
  %12 = load ptr, ptr %4, align 8, !tbaa !3
  %13 = call i32 @OBJ_obj2nid(ptr noundef %12) #3
  %14 = call i32 @EVP_PKEY_set_type(ptr noundef nonnull %8, i32 noundef %13) #3
  %.not18 = icmp eq i32 %14, 0
  br i1 %.not18, label %15, label %18

15:                                               ; preds = %11
  %16 = load ptr, ptr %4, align 8, !tbaa !3
  %17 = call i32 @i2t_ASN1_OBJECT(ptr noundef nonnull %5, i32 noundef 80, ptr noundef %16) #3
  call void @ERR_new() #3
  call void @ERR_set_debug(ptr noundef nonnull @.str, i32 noundef 42, ptr noundef nonnull @__func__.evp_pkcs82pkey_legacy) #3
  call void (i32, i32, ptr, ...) @ERR_set_error(i32 noundef 6, i32 noundef 118, ptr noundef nonnull @.str.1, ptr noundef nonnull %5) #3
  br label %32

18:                                               ; preds = %11
  %19 = getelementptr inbounds nuw i8, ptr %8, i64 8
  %20 = load ptr, ptr %19, align 8, !tbaa !8
  %21 = getelementptr inbounds nuw i8, ptr %20, i64 312
  %22 = load ptr, ptr %21, align 8, !tbaa !22
  %.not19 = icmp eq ptr %22, null
  br i1 %.not19, label %25, label %23

23:                                               ; preds = %18
  %24 = call i32 %22(ptr noundef nonnull %8, ptr noundef %0, ptr noundef %1, ptr noundef %2) #3
  %.not22 = icmp eq i32 %24, 0
  br i1 %.not22, label %32, label %33

25:                                               ; preds = %18
  %26 = getelementptr inbounds nuw i8, ptr %20, i64 64
  %27 = load ptr, ptr %26, align 8, !tbaa !25
  %.not20 = icmp eq ptr %27, null
  br i1 %.not20, label %31, label %28

28:                                               ; preds = %25
  %29 = call i32 %27(ptr noundef nonnull %8, ptr noundef %0) #3
  %.not21 = icmp eq i32 %29, 0
  br i1 %.not21, label %30, label %33

30:                                               ; preds = %28
  call void @ERR_new() #3
  call void @ERR_set_debug(ptr noundef nonnull @.str, i32 noundef 52, ptr noundef nonnull @__func__.evp_pkcs82pkey_legacy) #3
  call void (i32, i32, ptr, ...) @ERR_set_error(i32 noundef 6, i32 noundef 145, ptr noundef null) #3
  br label %32

31:                                               ; preds = %25
  call void @ERR_new() #3
  call void @ERR_set_debug(ptr noundef nonnull @.str, i32 noundef 56, ptr noundef nonnull @__func__.evp_pkcs82pkey_legacy) #3
  call void (i32, i32, ptr, ...) @ERR_set_error(i32 noundef 6, i32 noundef 144, ptr noundef null) #3
  br label %32

32:                                               ; preds = %23, %31, %30, %15
  call void @EVP_PKEY_free(ptr noundef nonnull %8) #3
  br label %33

33:                                               ; preds = %23, %28, %3, %32, %10
  %.0 = phi ptr [ null, %10 ], [ null, %32 ], [ null, %3 ], [ %8, %28 ], [ %8, %23 ]
  call void @llvm.lifetime.end.p0(i64 80, ptr nonnull %5) #3
  call void @llvm.lifetime.end.p0(i64 8, ptr nonnull %4) #3
  ret ptr %.0
}